target datalayout = "e-m:e-p270:32:32-p271:32:32-p272:64:64-i64:64-i128:128-f80:128-n8:16:32:64-S128"
target triple = "x86_64-pc-linux-gnu"

%struct._ir_insn = type { %struct.anon, %union.anon.5 }
%struct.anon = type { %union.anon, %union.anon.4 }
%union.anon = type { i32 }
%union.anon.4 = type { i32 }
%union.anon.5 = type { %union._ir_val }
%union._ir_val = type { double }
%struct._ir_ctx = type { ptr, i32, i32, i32, i32, i32, i32, i32, i32, i32, i32, %struct._ir_insn, ptr, ptr, ptr, i32, i32, i32, ptr, ptr, ptr, ptr, ptr, i32, i32, i64, i32, i32, i32, i64, i32, i32, i32, i32, ptr, ptr, ptr, ptr, ptr, ptr, %union.anon.13, ptr, i32, i32, i32, i64, i32, i32, i32, ptr, ptr, ptr, ptr, %struct._ir_strtab, [61 x i32], [14 x i32] }
%union.anon.13 = type { ptr }
%struct._ir_strtab = type { ptr, i32, i32, i32, i32, ptr, i32, i32 }
%struct._ir_use_list = type { i32, i32 }

; Function Attrs: nounwind uwtable
define hidden void @ir_use_list_replace(ptr noundef %0, i32 noundef %1, i32 noundef %2, i32 noundef %3) #0 {
  %5 = alloca ptr, align 8
  %6 = alloca i32, align 4
  %7 = alloca i32, align 4
  %8 = alloca i32, align 4
  %9 = alloca ptr, align 8
  %10 = alloca i32, align 4
  %11 = alloca i32, align 4
  %12 = alloca ptr, align 8
  store ptr %0, ptr %5, align 8
  store i32 %1, ptr %6, align 4
  store i32 %2, ptr %7, align 4
  store i32 %3, ptr %8, align 4
  %13 = load ptr, ptr %5, align 8
  %14 = getelementptr inbounds %struct._ir_ctx, ptr %13, i32 0, i32 13
  %15 = load ptr, ptr %14, align 8
  %16 = load i32, ptr %6, align 4
  %17 = sext i32 %16 to i64
  %18 = getelementptr inbounds %struct._ir_use_list, ptr %15, i64 %17
  store ptr %18, ptr %9, align 8
  %19 = load ptr, ptr %9, align 8
  %20 = getelementptr inbounds %struct._ir_use_list, ptr %19, i32 0, i32 1
  %21 = load i32, ptr %20, align 4
  store i32 %21, ptr %11, align 4
  store i32 0, ptr %10, align 4
  %22 = load ptr, ptr %5, align 8
  %23 = getelementptr inbounds %struct._ir_ctx, ptr %22, i32 0, i32 14
  %24 = load ptr, ptr %23, align 8
  %25 = load ptr, ptr %9, align 8
  %26 = getelementptr inbounds %struct._ir_use_list, ptr %25, i32 0, i32 0
  %27 = load i32, ptr %26, align 4
  %28 = sext i32 %27 to i64
  %29 = getelementptr inbounds i32, ptr %24, i64 %28
  store ptr %29, ptr %12, align 8
  br label %30

30:                                               ; preds = %43, %4
  %31 = load i32, ptr %10, align 4
  %32 = load i32, ptr %11, align 4
  %33 = icmp slt i32 %31, %32
  br i1 %33, label %34, label %48

34:                                               ; preds = %30
  %35 = load ptr, ptr %12, align 8
  %36 = load i32, ptr %35, align 4
  %37 = load i32, ptr %7, align 4
  %38 = icmp eq i32 %36, %37
  br i1 %38, label %39, label %42

39:                                               ; preds = %34
  %40 = load i32, ptr %8, align 4
  %41 = load ptr, ptr %12, align 8
  store i32 %40, ptr %41, align 4
  br label %48

42:                                               ; preds = %34
  br label %43

43:                                               ; preds = %42
  %44 = load i32, ptr %10, align 4
  %45 = add nsw i32 %44, 1
  store i32 %45, ptr %10, align 4
  %46 = load ptr, ptr %12, align 8
  %47 = getelementptr inbounds i32, ptr %46, i32 1
  store ptr %47, ptr %12, align 8
  br label %30

48:                                               ; preds = %39, %30
  ret void
}