; Function Attrs: nofree norecurse nosync nounwind memory(readwrite, inaccessiblemem: none) uwtable
define hidden void @ir_use_list_replace(ptr nocapture noundef readonly %0, i32 noundef %1, i32 noundef %2, i32 noundef %3) local_unnamed_addr #14 {
  %5 = getelementptr inbounds i8, ptr %0, i64 72
  %6 = load ptr, ptr %5, align 8
  %7 = sext i32 %1 to i64
  %8 = getelementptr inbounds %struct._ir_use_list, ptr %6, i64 %7
  %9 = getelementptr inbounds i8, ptr %8, i64 4
  %10 = load i32, ptr %9, align 4
  %11 = icmp sgt i32 %10, 0
  br i1 %11, label %.lr.ph.preheader, label %.loopexit

.lr.ph.preheader:                                 ; preds = %4
  %12 = getelementptr inbounds i8, ptr %0, i64 80
  %13 = load ptr, ptr %12, align 8
  %14 = load i32, ptr %8, align 4
  %15 = sext i32 %14 to i64
  %16 = getelementptr inbounds i32, ptr %13, i64 %15
  br label %.lr.ph

.lr.ph:                                           ; preds = %.lr.ph.preheader, %20
  %.015 = phi ptr [ %22, %20 ], [ %16, %.lr.ph.preheader ]
  %.01214 = phi i32 [ %21, %20 ], [ 0, %.lr.ph.preheader ]
  %17 = load i32, ptr %.015, align 4
  %18 = icmp eq i32 %17, %2
  br i1 %18, label %19, label %20

19:                                               ; preds = %.lr.ph
  store i32 %3, ptr %.015, align 4
  br label %.loopexit

20:                                               ; preds = %.lr.ph
  %21 = add nuw nsw i32 %.01214, 1
  %22 = getelementptr inbounds i8, ptr %.015, i64 4
  %exitcond.not = icmp eq i32 %21, %10
  br i1 %exitcond.not, label %.loopexit, label %.lr.ph

.loopexit:                                        ; preds = %20, %4, %19
  ret void
}